target datalayout = "e-m:e-p270:32:32-p271:32:32-p272:64:64-i64:64-i128:128-f80:128-n8:16:32:64-S128"
target triple = "x86_64-pc-linux-gnu"

%struct.proc_receive_ref = type { i8, ptr, ptr }

@proc_receive_ref = internal global ptr null, align 8

; Function Attrs: nounwind uwtable
define internal void @proc_receive_ref_append(ptr noundef %0) #0 {
  %2 = alloca ptr, align 8
  %3 = alloca ptr, align 8
  %4 = alloca ptr, align 8
  %5 = alloca i32, align 4
  %6 = alloca ptr, align 8
  store ptr %0, ptr %2, align 8, !tbaa !11
  call void @llvm.lifetime.start.p0(i64 8, ptr %3) #15
  call void @llvm.lifetime.start.p0(i64 8, ptr %4) #15
  call void @llvm.lifetime.start.p0(i64 4, ptr %5) #15
  %7 = call ptr @xcalloc(i64 noundef 1, i64 noundef 24)
  store ptr %7, ptr %3, align 8, !tbaa !123
  %8 = load ptr, ptr %2, align 8, !tbaa !11
  %9 = call ptr @strchr(ptr noundef %8, i32 noundef 58) #17
  store ptr %9, ptr %4, align 8, !tbaa !11
  %10 = load ptr, ptr %4, align 8, !tbaa !11
  %11 = icmp ne ptr %10, null
  br i1 %11, label %12, label %66

12:                                               ; preds = %1
  br label %13

13:                                               ; preds = %60, %12
  %14 = load ptr, ptr %2, align 8, !tbaa !11
  %15 = load ptr, ptr %4, align 8, !tbaa !11
  %16 = icmp ult ptr %14, %15
  br i1 %16, label %17, label %63

17:                                               ; preds = %13
  %18 = load ptr, ptr %2, align 8, !tbaa !11
  %19 = load i8, ptr %18, align 1, !tbaa !44
  %20 = sext i8 %19 to i32
  %21 = icmp eq i32 %20, 97
  br i1 %21, label %22, label %27

22:                                               ; preds = %17
  %23 = load ptr, ptr %3, align 8, !tbaa !123
  %24 = load i8, ptr %23, align 8
  %25 = and i8 %24, -2
  %26 = or i8 %25, 1
  store i8 %26, ptr %23, align 8
  br label %60

27:                                               ; preds = %17
  %28 = load ptr, ptr %2, align 8, !tbaa !11
  %29 = load i8, ptr %28, align 1, !tbaa !44
  %30 = sext i8 %29 to i32
  %31 = icmp eq i32 %30, 100
  br i1 %31, label %32, label %37

32:                                               ; preds = %27
  %33 = load ptr, ptr %3, align 8, !tbaa !123
  %34 = load i8, ptr %33, align 8
  %35 = and i8 %34, -3
  %36 = or i8 %35, 2
  store i8 %36, ptr %33, align 8
  br label %59

37:                                               ; preds = %27
  %38 = load ptr, ptr %2, align 8, !tbaa !11
  %39 = load i8, ptr %38, align 1, !tbaa !44
  %40 = sext i8 %39 to i32
  %41 = icmp eq i32 %40, 109
  br i1 %41, label %42, label %47

42:                                               ; preds = %37
  %43 = load ptr, ptr %3, align 8, !tbaa !123
  %44 = load i8, ptr %43, align 8
  %45 = and i8 %44, -5
  %46 = or i8 %45, 4
  store i8 %46, ptr %43, align 8
  br label %58

47:                                               ; preds = %37
  %48 = load ptr, ptr %2, align 8, !tbaa !11
  %49 = load i8, ptr %48, align 1, !tbaa !44
  %50 = sext i8 %49 to i32
  %51 = icmp eq i32 %50, 33
  br i1 %51, label %52, label %57

52:                                               ; preds = %47
  %53 = load ptr, ptr %3, align 8, !tbaa !123
  %54 = load i8, ptr %53, align 8
  %55 = and i8 %54, -9
  %56 = or i8 %55, 8
  store i8 %56, ptr %53, align 8
  br label %57

57:                                               ; preds = %52, %47
  br label %58

58:                                               ; preds = %57, %42
  br label %59

59:                                               ; preds = %58, %32
  br label %60

60:                                               ; preds = %59, %22
  %61 = load ptr, ptr %2, align 8, !tbaa !11
  %62 = getelementptr inbounds nuw i8, ptr %61, i32 1
  store ptr %62, ptr %2, align 8, !tbaa !11
  br label %13, !llvm.loop !154

63:                                               ; preds = %13
  %64 = load ptr, ptr %2, align 8, !tbaa !11
  %65 = getelementptr inbounds nuw i8, ptr %64, i32 1
  store ptr %65, ptr %2, align 8, !tbaa !11
  br label %79

66:                                               ; preds = %1
  %67 = load ptr, ptr %3, align 8, !tbaa !123
  %68 = load i8, ptr %67, align 8
  %69 = and i8 %68, -2
  %70 = or i8 %69, 1
  store i8 %70, ptr %67, align 8
  %71 = load ptr, ptr %3, align 8, !tbaa !123
  %72 = load i8, ptr %71, align 8
  %73 = and i8 %72, -3
  %74 = or i8 %73, 2
  store i8 %74, ptr %71, align 8
  %75 = load ptr, ptr %3, align 8, !tbaa !123
  %76 = load i8, ptr %75, align 8
  %77 = and i8 %76, -5
  %78 = or i8 %77, 4
  store i8 %78, ptr %75, align 8
  br label %79

79:                                               ; preds = %66, %63
  %80 = load ptr, ptr %2, align 8, !tbaa !11
  %81 = call i64 @strlen(ptr noundef %80) #17
  %82 = trunc i64 %81 to i32
  store i32 %82, ptr %5, align 4, !tbaa !4
  br label %83

83:                                               ; preds = %97, %79
  %84 = load i32, ptr %5, align 4, !tbaa !4
  %85 = icmp ne i32 %84, 0
  br i1 %85, label %86, label %95

86:                                               ; preds = %83
  %87 = load ptr, ptr %2, align 8, !tbaa !11
  %88 = load i32, ptr %5, align 4, !tbaa !4
  %89 = sub nsw i32 %88, 1
  %90 = sext i32 %89 to i64
  %91 = getelementptr inbounds i8, ptr %87, i64 %90
  %92 = load i8, ptr %91, align 1, !tbaa !44
  %93 = sext i8 %92 to i32
  %94 = icmp eq i32 %93, 47
  br label %95

95:                                               ; preds = %86, %83
  %96 = phi i1 [ false, %83 ], [ %94, %86 ]
  br i1 %96, label %97, label %100

97:                                               ; preds = %95
  %98 = load i32, ptr %5, align 4, !tbaa !4
  %99 = add nsw i32 %98, -1
  store i32 %99, ptr %5, align 4, !tbaa !4
  br label %83, !llvm.loop !155

100:                                              ; preds = %95
  %101 = load ptr, ptr %2, align 8, !tbaa !11
  %102 = load i32, ptr %5, align 4, !tbaa !4
  %103 = sext i32 %102 to i64
  %104 = call ptr @xmemdupz(ptr noundef %101, i64 noundef %103)
  %105 = load ptr, ptr %3, align 8, !tbaa !123
  %106 = getelementptr inbounds nuw %struct.proc_receive_ref, ptr %105, i32 0, i32 1
  store ptr %104, ptr %106, align 8, !tbaa !156
  %107 = load ptr, ptr @proc_receive_ref, align 8, !tbaa !123
  %108 = icmp ne ptr %107, null
  br i1 %108, label %111, label %109

109:                                              ; preds = %100
  %110 = load ptr, ptr %3, align 8, !tbaa !123
  store ptr %110, ptr @proc_receive_ref, align 8, !tbaa !123
  br label %126

111:                                              ; preds = %100
  call void @llvm.lifetime.start.p0(i64 8, ptr %6) #15
  %112 = load ptr, ptr @proc_receive_ref, align 8, !tbaa !123
  store ptr %112, ptr %6, align 8, !tbaa !123
  br label %113

113:                                              ; preds = %118, %111
  %114 = load ptr, ptr %6, align 8, !tbaa !123
  %115 = getelementptr inbounds nuw %struct.proc_receive_ref, ptr %114, i32 0, i32 2
  %116 = load ptr, ptr %115, align 8, !tbaa !158
  %117 = icmp ne ptr %116, null
  br i1 %117, label %118, label %122

118:                                              ; preds = %113
  %119 = load ptr, ptr %6, align 8, !tbaa !123
  %120 = getelementptr inbounds nuw %struct.proc_receive_ref, ptr %119, i32 0, i32 2
  %121 = load ptr, ptr %120, align 8, !tbaa !158
  store ptr %121, ptr %6, align 8, !tbaa !123
  br label %113, !llvm.loop !159

122:                                              ; preds = %113
  %123 = load ptr, ptr %3, align 8, !tbaa !123
  %124 = load ptr, ptr %6, align 8, !tbaa !123
  %125 = getelementptr inbounds nuw %struct.proc_receive_ref, ptr %124, i32 0, i32 2
  store ptr %123, ptr %125, align 8, !tbaa !158
  call void @llvm.lifetime.end.p0(i64 8, ptr %6) #15
  br label %126

126:                                              ; preds = %122, %109
  call void @llvm.lifetime.end.p0(i64 4, ptr %5) #15
  call void @llvm.lifetime.end.p0(i64 8, ptr %4) #15
  call void @llvm.lifetime.end.p0(i64 8, ptr %3) #15
  ret void
}