; Function Attrs: nounwind uwtable
define internal fastcc void @proc_receive_ref_append(ptr noundef nonnull %0) unnamed_addr #0 {
  %2 = ptrtoint ptr %0 to i64
  %3 = tail call ptr @xcalloc(i64 noundef 1, i64 noundef 24) #21
  %4 = tail call ptr @strchr(ptr noundef nonnull dereferenceable(1) %0, i32 noundef 58) #23
  %5 = ptrtoint ptr %4 to i64
  %.not = icmp eq ptr %4, null
  br i1 %.not, label %17, label %.preheader37

.preheader37:                                     ; preds = %1
  %6 = icmp ult ptr %0, %4
  br i1 %6, label %.lr.ph.preheader, label %._crit_edge

.lr.ph.preheader:                                 ; preds = %.preheader37
  %7 = sub i64 %5, %2
  %scevgep = getelementptr i8, ptr %0, i64 %7
  br label %.lr.ph

.lr.ph:                                           ; preds = %.lr.ph.preheader, %14
  %.03038 = phi ptr [ %15, %14 ], [ %0, %.lr.ph.preheader ]
  %8 = load i8, ptr %.03038, align 1, !tbaa !60
  switch i8 %8, label %14 [
    i8 97, label %.sink.split
    i8 100, label %9
    i8 109, label %10
    i8 33, label %11
  ]

9:                                                ; preds = %.lr.ph
  br label %.sink.split

10:                                               ; preds = %.lr.ph
  br label %.sink.split

11:                                               ; preds = %.lr.ph
  br label %.sink.split

.sink.split:                                      ; preds = %.lr.ph, %10, %11, %9
  %.sink49 = phi i8 [ 2, %9 ], [ 8, %11 ], [ 4, %10 ], [ 1, %.lr.ph ]
  %12 = load i8, ptr %3, align 8
  %13 = or i8 %12, %.sink49
  store i8 %13, ptr %3, align 8
  br label %14

14:                                               ; preds = %.sink.split, %.lr.ph
  %15 = getelementptr inbounds nuw i8, ptr %.03038, i64 1
  %exitcond.not = icmp eq ptr %15, %4
  br i1 %exitcond.not, label %._crit_edge, label %.lr.ph, !llvm.loop !178

._crit_edge:                                      ; preds = %14, %.preheader37
  %.030.lcssa = phi ptr [ %0, %.preheader37 ], [ %scevgep, %14 ]
  %16 = getelementptr inbounds nuw i8, ptr %.030.lcssa, i64 1
  br label %20

17:                                               ; preds = %1
  %18 = load i8, ptr %3, align 8
  %19 = or i8 %18, 7
  store i8 %19, ptr %3, align 8
  br label %20

20:                                               ; preds = %17, %._crit_edge
  %.1 = phi ptr [ %16, %._crit_edge ], [ %0, %17 ]
  %21 = tail call i64 @strlen(ptr noundef nonnull dereferenceable(1) %.1) #23
  %invariant.gep = getelementptr i8, ptr %.1, i64 -1
  %22 = and i64 %21, 4294967295
  %.not3439 = icmp eq i64 %22, 0
  br i1 %.not3439, label %.critedge, label %.lr.ph42.preheader

.lr.ph42.preheader:                               ; preds = %20
  %sext = shl i64 %21, 32
  %23 = ashr exact i64 %sext, 32
  br label %.lr.ph42

.lr.ph42:                                         ; preds = %.lr.ph42.preheader, %26
  %indvars.iv = phi i64 [ %23, %.lr.ph42.preheader ], [ %indvars.iv.next, %26 ]
  %gep = getelementptr i8, ptr %invariant.gep, i64 %indvars.iv
  %24 = load i8, ptr %gep, align 1, !tbaa !60
  %25 = icmp eq i8 %24, 47
  br i1 %25, label %26, label %.critedge.loopexit

26:                                               ; preds = %.lr.ph42
  %indvars.iv.next = add nsw i64 %indvars.iv, -1
  %.not34 = icmp eq i64 %indvars.iv.next, 0
  br i1 %.not34, label %.critedge.loopexit, label %.lr.ph42, !llvm.loop !179

.critedge.loopexit:                               ; preds = %26, %.lr.ph42
  %.029.lcssa.ph = phi i64 [ %indvars.iv, %.lr.ph42 ], [ 0, %26 ]
  %sext47 = shl i64 %.029.lcssa.ph, 32
  %27 = ashr exact i64 %sext47, 32
  br label %.critedge

.critedge:                                        ; preds = %.critedge.loopexit, %20
  %.029.lcssa = phi i64 [ 0, %20 ], [ %27, %.critedge.loopexit ]
  %28 = tail call ptr @xmemdupz(ptr noundef nonnull %.1, i64 noundef %.029.lcssa) #21
  %29 = getelementptr inbounds nuw i8, ptr %3, i64 8
  store ptr %28, ptr %29, align 8, !tbaa !115
  %30 = load ptr, ptr @proc_receive_ref, align 8, !tbaa !113
  %.not35 = icmp eq ptr %30, null
  br i1 %.not35, label %31, label %.preheader

31:                                               ; preds = %.critedge
  store ptr %3, ptr @proc_receive_ref, align 8, !tbaa !113
  br label %36

.preheader:                                       ; preds = %.critedge, %.preheader
  %.0 = phi ptr [ %33, %.preheader ], [ %30, %.critedge ]
  %32 = getelementptr inbounds nuw i8, ptr %.0, i64 16
  %33 = load ptr, ptr %32, align 8, !tbaa !118
  %.not36 = icmp eq ptr %33, null
  br i1 %.not36, label %34, label %.preheader, !llvm.loop !180

34:                                               ; preds = %.preheader
  %35 = getelementptr inbounds nuw i8, ptr %.0, i64 16
  store ptr %3, ptr %35, align 8, !tbaa !118
  br label %36

36:                                               ; preds = %34, %31
  ret void
}